target datalayout = "e-m:e-p270:32:32-p271:32:32-p272:64:64-i64:64-i128:128-f80:128-n8:16:32:64-S128"
target triple = "x86_64-pc-linux-gnu"

%struct.RBasic = type { i64, i64 }
%struct.RObject = type { %struct.RBasic, %union.anon.4 }
%union.anon.4 = type { %struct.anon.5 }
%struct.anon.5 = type { ptr }
%struct.rbimpl_size_mul_overflow_tag = type { i8, i64 }

; Function Attrs: inlinehint nounwind sspstrong willreturn memory(read) uwtable
define internal i64 @RB_FL_TEST_RAW(i64 noundef %0, i64 noundef %1) #2 {
  %3 = alloca i64, align 8
  %4 = alloca i64, align 8
  store i64 %0, ptr %3, align 8, !tbaa !14
  store i64 %1, ptr %4, align 8, !tbaa !14
  %5 = load i64, ptr %3, align 8, !tbaa !14
  %6 = inttoptr i64 %5 to ptr
  %7 = getelementptr inbounds nuw %struct.RBasic, ptr %6, i32 0, i32 0
  %8 = load i64, ptr %7, align 8, !tbaa !102
  %9 = load i64, ptr %4, align 8, !tbaa !14
  %10 = and i64 %8, %9
  ret i64 %10
}

; Function Attrs: inlinehint nounwind sspstrong memory(argmem: readwrite, inaccessiblemem: readwrite) uwtable
define internal void @rbimpl_fl_unset_raw_raw(ptr noundef %0, i64 noundef %1) #8 {
  %3 = alloca ptr, align 8
  %4 = alloca i64, align 8
  store ptr %0, ptr %3, align 8, !tbaa !219
  store i64 %1, ptr %4, align 8, !tbaa !14
  %5 = load i64, ptr %4, align 8, !tbaa !14
  %6 = xor i64 %5, -1
  %7 = load ptr, ptr %3, align 8, !tbaa !219
  %8 = getelementptr inbounds nuw %struct.RBasic, ptr %7, i32 0, i32 0
  %9 = load i64, ptr %8, align 8, !tbaa !102
  %10 = and i64 %9, %6
  store i64 %10, ptr %8, align 8, !tbaa !102
  ret void
}

; Function Attrs: alwaysinline nounwind
define internal ptr @memcpy.inline(ptr noalias nonnull %0, ptr noalias nonnull %1, i64 %2) #24 {
  %4 = alloca ptr, align 8
  %5 = alloca ptr, align 8
  %6 = alloca i64, align 8
  store ptr %0, ptr %4, align 8, !tbaa !40
  store ptr %1, ptr %5, align 8, !tbaa !40
  store i64 %2, ptr %6, align 8, !tbaa !14
  %7 = load ptr, ptr %4, align 8, !tbaa !40
  %8 = load ptr, ptr %5, align 8, !tbaa !40
  %9 = load i64, ptr %6, align 8, !tbaa !14
  %10 = load ptr, ptr %4, align 8, !tbaa !40
  %11 = call i64 @llvm.objectsize.i64.p0(ptr %10, i1 false, i1 true, i1 false)
  %12 = call ptr @__memcpy_chk(ptr noundef %7, ptr noundef %8, i64 noundef %9, i64 noundef %11) #30
  ret ptr %12
}

; Function Attrs: inlinehint nounwind sspstrong willreturn memory(none) uwtable
define internal { i8, i64 } @rbimpl_size_mul_overflow(i64 noundef %0, i64 noundef %1) #5 {
  %3 = alloca %struct.rbimpl_size_mul_overflow_tag, align 8
  %4 = alloca i64, align 8
  %5 = alloca i64, align 8
  store i64 %0, ptr %4, align 8, !tbaa !14
  store i64 %1, ptr %5, align 8, !tbaa !14
  call void @llvm.memset.p0.i64(ptr align 8 %3, i8 0, i64 16, i1 false)
  %6 = load i64, ptr %4, align 8, !tbaa !14
  %7 = load i64, ptr %5, align 8, !tbaa !14
  %8 = getelementptr inbounds nuw %struct.rbimpl_size_mul_overflow_tag, ptr %3, i32 0, i32 1
  %9 = call { i64, i1 } @llvm.umul.with.overflow.i64(i64 %6, i64 %7)
  %10 = extractvalue { i64, i1 } %9, 1
  %11 = extractvalue { i64, i1 } %9, 0
  store i64 %11, ptr %8, align 8
  %12 = getelementptr inbounds nuw %struct.rbimpl_size_mul_overflow_tag, ptr %3, i32 0, i32 0
  %13 = zext i1 %10 to i8
  store i8 %13, ptr %12, align 8, !tbaa !105
  %14 = load { i8, i64 }, ptr %3, align 8
  ret { i8, i64 } %14
}

; Function Attrs: inlinehint nounwind sspstrong willreturn memory(read) uwtable
define internal zeroext i1 @RB_FL_ANY_RAW(i64 noundef %0, i64 noundef %1) #2 {
  %3 = alloca i64, align 8
  %4 = alloca i64, align 8
  store i64 %0, ptr %3, align 8, !tbaa !14
  store i64 %1, ptr %4, align 8, !tbaa !14
  %5 = load i64, ptr %3, align 8, !tbaa !14
  %6 = load i64, ptr %4, align 8, !tbaa !14
  %7 = call i64 @RB_FL_TEST_RAW(i64 noundef %5, i64 noundef %6) #29
  %8 = icmp ne i64 %7, 0
  ret i1 %8
}

; Function Attrs: inlinehint nounwind sspstrong uwtable
define internal void @RB_FL_UNSET_RAW(i64 noundef %0, i64 noundef %1) #6 {
  %3 = alloca i64, align 8
  %4 = alloca i64, align 8
  store i64 %0, ptr %3, align 8, !tbaa !14
  store i64 %1, ptr %4, align 8, !tbaa !14
  %5 = load i64, ptr %3, align 8, !tbaa !14
  %6 = inttoptr i64 %5 to ptr
  %7 = load i64, ptr %4, align 8, !tbaa !14
  call void @rbimpl_fl_unset_raw_raw(ptr noundef %6, i64 noundef %7) #34
  ret void
}

; Function Attrs: inlinehint nounwind sspstrong memory(argmem: readwrite, inaccessiblemem: readwrite) uwtable
define internal nonnull ptr @ruby_nonempty_memcpy(ptr noundef nonnull %0, ptr noundef %1, i64 noundef %2) #8 {
  %4 = alloca ptr, align 8
  %5 = alloca ptr, align 8
  %6 = alloca ptr, align 8
  %7 = alloca i64, align 8
  store ptr %0, ptr %5, align 8, !tbaa !40
  store ptr %1, ptr %6, align 8, !tbaa !40
  store i64 %2, ptr %7, align 8, !tbaa !14
  %8 = load i64, ptr %7, align 8, !tbaa !14
  %9 = icmp ne i64 %8, 0
  br i1 %9, label %10, label %15

10:                                               ; preds = %3
  %11 = load ptr, ptr %5, align 8, !tbaa !40
  %12 = load ptr, ptr %6, align 8, !tbaa !40
  %13 = load i64, ptr %7, align 8, !tbaa !14
  %14 = call ptr @memcpy.inline(ptr noundef %11, ptr noundef %12, i64 noundef %13) #30
  store ptr %14, ptr %4, align 8
  br label %17

15:                                               ; preds = %3
  %16 = load ptr, ptr %5, align 8, !tbaa !40
  store ptr %16, ptr %4, align 8
  br label %17

17:                                               ; preds = %15, %10
  %18 = load ptr, ptr %4, align 8
  ret ptr %18
}

; Function Attrs: inlinehint nounwind sspstrong uwtable
define internal i64 @rbimpl_size_mul_or_raise(i64 noundef %0, i64 noundef %1) #6 {
  %3 = alloca i64, align 8
  %4 = alloca i64, align 8
  %5 = alloca %struct.rbimpl_size_mul_overflow_tag, align 8
  store i64 %0, ptr %3, align 8, !tbaa !14
  store i64 %1, ptr %4, align 8, !tbaa !14
  call void @llvm.lifetime.start.p0(i64 16, ptr %5) #30
  %6 = load i64, ptr %3, align 8, !tbaa !14
  %7 = load i64, ptr %4, align 8, !tbaa !14
  %8 = call { i8, i64 } @rbimpl_size_mul_overflow(i64 noundef %6, i64 noundef %7) #32
  %9 = getelementptr inbounds nuw { i8, i64 }, ptr %5, i32 0, i32 0
  %10 = extractvalue { i8, i64 } %8, 0
  store i8 %10, ptr %9, align 8
  %11 = getelementptr inbounds nuw { i8, i64 }, ptr %5, i32 0, i32 1
  %12 = extractvalue { i8, i64 } %8, 1
  store i64 %12, ptr %11, align 8
  %13 = getelementptr inbounds nuw %struct.rbimpl_size_mul_overflow_tag, ptr %5, i32 0, i32 0
  %14 = load i8, ptr %13, align 8, !tbaa !105, !range !30, !noundef !31
  %15 = trunc i8 %14 to i1
  %16 = xor i1 %15, true
  %17 = xor i1 %16, true
  %18 = xor i1 %17, true
  %19 = zext i1 %18 to i32
  %20 = sext i32 %19 to i64
  %21 = call i64 @llvm.expect.i64(i64 %20, i64 1)
  %22 = icmp ne i64 %21, 0
  br i1 %22, label %23, label %26

23:                                               ; preds = %2
  %24 = getelementptr inbounds nuw %struct.rbimpl_size_mul_overflow_tag, ptr %5, i32 0, i32 1
  %25 = load i64, ptr %24, align 8, !tbaa !107
  call void @llvm.lifetime.end.p0(i64 16, ptr %5) #30
  ret i64 %25

26:                                               ; preds = %2
  %27 = load i64, ptr %3, align 8, !tbaa !14
  %28 = load i64, ptr %4, align 8, !tbaa !14
  call void @ruby_malloc_size_overflow(i64 noundef %27, i64 noundef %28) #31
  unreachable
}

; Function Attrs: inlinehint nounwind sspstrong willreturn memory(read) uwtable
define internal ptr @ROBJECT_IVPTR(i64 noundef %0) #2 {
  %2 = alloca ptr, align 8
  %3 = alloca i64, align 8
  %4 = alloca ptr, align 8
  %5 = alloca i32, align 4
  store i64 %0, ptr %3, align 8, !tbaa !14
  call void @llvm.lifetime.start.p0(i64 8, ptr %4) #30
  %6 = load i64, ptr %3, align 8, !tbaa !14
  %7 = inttoptr i64 %6 to ptr
  store ptr %7, ptr %4, align 8, !tbaa !103
  %8 = load i64, ptr %3, align 8, !tbaa !14
  %9 = call zeroext i1 @RB_FL_ANY_RAW(i64 noundef %8, i64 noundef 8192) #29
  br i1 %9, label %10, label %14

10:                                               ; preds = %1
  %11 = load ptr, ptr %4, align 8, !tbaa !103
  %12 = getelementptr inbounds nuw %struct.RObject, ptr %11, i32 0, i32 1
  %13 = getelementptr inbounds [1 x i64], ptr %12, i64 0, i64 0
  store ptr %13, ptr %2, align 8
  store i32 1, ptr %5, align 4
  br label %19

14:                                               ; preds = %1
  %15 = load ptr, ptr %4, align 8, !tbaa !103
  %16 = getelementptr inbounds nuw %struct.RObject, ptr %15, i32 0, i32 1
  %17 = getelementptr inbounds nuw %struct.anon.5, ptr %16, i32 0, i32 0
  %18 = load ptr, ptr %17, align 8, !tbaa !36
  store ptr %18, ptr %2, align 8
  store i32 1, ptr %5, align 4
  br label %19

19:                                               ; preds = %14, %10
  call void @llvm.lifetime.end.p0(i64 8, ptr %4) #30
  %20 = load ptr, ptr %2, align 8
  ret ptr %20
}

; Function Attrs: nounwind sspstrong uwtable
define hidden void @rb_ensure_iv_list_size(i64 noundef %0, i32 noundef %1, i32 noundef %2) #0 {
  %4 = alloca i64, align 8
  %5 = alloca i32, align 4
  %6 = alloca i32, align 4
  %7 = alloca ptr, align 8
  %8 = alloca ptr, align 8
  store i64 %0, ptr %4, align 8, !tbaa !14
  store i32 %1, ptr %5, align 4, !tbaa !51
  store i32 %2, ptr %6, align 4, !tbaa !51
  %9 = load i64, ptr %4, align 8, !tbaa !14
  %10 = inttoptr i64 %9 to ptr
  %11 = getelementptr inbounds nuw %struct.RBasic, ptr %10, i32 0, i32 0
  %12 = load i64, ptr %11, align 8, !tbaa !102
  %13 = and i64 %12, 8192
  %14 = icmp ne i64 %13, 0
  br i1 %14, label %15, label %33

15:                                               ; preds = %3
  call void @llvm.lifetime.start.p0(i64 8, ptr %7) #30
  %16 = load i64, ptr %4, align 8, !tbaa !14
  %17 = call ptr @ROBJECT_IVPTR(i64 noundef %16) #29
  store ptr %17, ptr %7, align 8, !tbaa !49
  call void @llvm.lifetime.start.p0(i64 8, ptr %8) #30
  %18 = load i32, ptr %6, align 4, !tbaa !51
  %19 = zext i32 %18 to i64
  %20 = call noalias nonnull ptr @ruby_xmalloc2(i64 noundef %19, i64 noundef 8) #36
  store ptr %20, ptr %8, align 8, !tbaa !49
  %21 = load ptr, ptr %8, align 8, !tbaa !49
  %22 = load ptr, ptr %7, align 8, !tbaa !49
  %23 = load i32, ptr %5, align 4, !tbaa !51
  %24 = zext i32 %23 to i64
  %25 = call i64 @rbimpl_size_mul_or_raise(i64 noundef 8, i64 noundef %24)
  %26 = call nonnull ptr @ruby_nonempty_memcpy(ptr noundef %21, ptr noundef %22, i64 noundef %25) #34
  %27 = load i64, ptr %4, align 8, !tbaa !14
  call void @RB_FL_UNSET_RAW(i64 noundef %27, i64 noundef 8192)
  %28 = load ptr, ptr %8, align 8, !tbaa !49
  %29 = load i64, ptr %4, align 8, !tbaa !14
  %30 = inttoptr i64 %29 to ptr
  %31 = getelementptr inbounds nuw %struct.RObject, ptr %30, i32 0, i32 1
  %32 = getelementptr inbounds nuw %struct.anon.5, ptr %31, i32 0, i32 0
  store ptr %28, ptr %32, align 8, !tbaa !36
  call void @llvm.lifetime.end.p0(i64 8, ptr %8) #30
  call void @llvm.lifetime.end.p0(i64 8, ptr %7) #30
  br label %46

33:                                               ; preds = %3
  %34 = load i64, ptr %4, align 8, !tbaa !14
  %35 = inttoptr i64 %34 to ptr
  %36 = getelementptr inbounds nuw %struct.RObject, ptr %35, i32 0, i32 1
  %37 = getelementptr inbounds nuw %struct.anon.5, ptr %36, i32 0, i32 0
  %38 = load ptr, ptr %37, align 8, !tbaa !36
  %39 = load i32, ptr %6, align 4, !tbaa !51
  %40 = zext i32 %39 to i64
  %41 = call nonnull ptr @ruby_xrealloc2(ptr noundef %38, i64 noundef %40, i64 noundef 8) #37
  %42 = load i64, ptr %4, align 8, !tbaa !14
  %43 = inttoptr i64 %42 to ptr
  %44 = getelementptr inbounds nuw %struct.RObject, ptr %43, i32 0, i32 1
  %45 = getelementptr inbounds nuw %struct.anon.5, ptr %44, i32 0, i32 0
  store ptr %41, ptr %45, align 8, !tbaa !36
  br label %46

46:                                               ; preds = %33, %15
  ret void
}

; Function Attrs: nounwind sspstrong uwtable
define internal void @obj_ivar_set_shape_resize_ivptr(i64 noundef %0, i32 noundef %1, i32 noundef %2, ptr noundef %3) #0 {
  %5 = alloca i64, align 8
  %6 = alloca i32, align 4
  %7 = alloca i32, align 4
  %8 = alloca ptr, align 8
  store i64 %0, ptr %5, align 8, !tbaa !14
  store i32 %1, ptr %6, align 4, !tbaa !51
  store i32 %2, ptr %7, align 4, !tbaa !51
  store ptr %3, ptr %8, align 8, !tbaa !40
  %9 = load i64, ptr %5, align 8, !tbaa !14
  %10 = load i32, ptr %6, align 4, !tbaa !51
  %11 = load i32, ptr %7, align 4, !tbaa !51
  call void @rb_ensure_iv_list_size(i64 noundef %9, i32 noundef %10, i32 noundef %11)
  ret void
}