; Function Attrs: nounwind sspstrong uwtable
define internal fastcc void @obj_ivar_set_shape_resize_ivptr(i64 noundef %0, i32 noundef %1, i32 noundef %2) unnamed_addr #0 {
  %4 = inttoptr i64 %0 to ptr
  %5 = load i64, ptr %4, align 8, !tbaa !28
  %6 = and i64 %5, 8192
  %.not.i = icmp eq i64 %6, 0
  %7 = getelementptr inbounds nuw i8, ptr %4, i64 16
  br i1 %.not.i, label %15, label %ROBJECT_IVPTR.exit.i

ROBJECT_IVPTR.exit.i:                             ; preds = %3
  %8 = zext i32 %2 to i64
  %9 = tail call noalias nonnull ptr @ruby_xmalloc2(i64 noundef %8, i64 noundef 8) #33
  %.not.i11.i = icmp eq i32 %1, 0
  br i1 %.not.i11.i, label %ruby_nonempty_memcpy.exit.i, label %10

10:                                               ; preds = %ROBJECT_IVPTR.exit.i
  %11 = zext i32 %1 to i64
  %12 = shl nuw nsw i64 %11, 3
  tail call void @llvm.memcpy.p0.p0.i64(ptr noundef nonnull align 1 %9, ptr noundef nonnull readonly align 1 %7, i64 noundef range(i64 1, 0) %12, i1 noundef false) #27
  br label %ruby_nonempty_memcpy.exit.i

ruby_nonempty_memcpy.exit.i:                      ; preds = %10, %ROBJECT_IVPTR.exit.i
  %13 = load i64, ptr %4, align 8, !tbaa !28
  %14 = and i64 %13, -8193
  store i64 %14, ptr %4, align 8, !tbaa !28
  br label %rb_ensure_iv_list_size.exit

15:                                               ; preds = %3
  %16 = load ptr, ptr %7, align 8, !tbaa !32
  %17 = zext i32 %2 to i64
  %18 = tail call nonnull ptr @ruby_xrealloc2(ptr noundef %16, i64 noundef %17, i64 noundef 8) #31
  br label %rb_ensure_iv_list_size.exit

rb_ensure_iv_list_size.exit:                      ; preds = %ruby_nonempty_memcpy.exit.i, %15
  %.sink.i = phi ptr [ %18, %15 ], [ %9, %ruby_nonempty_memcpy.exit.i ]
  store ptr %.sink.i, ptr %7, align 8, !tbaa !32
  ret void
}